; Function Attrs: nounwind sspstrong uwtable
define dso_local noundef zeroext i1 @visit_type_q_obj_MEMORY_FAILURE_arg_members(ptr noundef %v, ptr noundef %obj, ptr noundef %errp) local_unnamed_addr #0 {
entry:
  %value.i7 = alloca i32, align 4
  %value.i = alloca i32, align 4
  call void @llvm.lifetime.start.p0(i64 4, ptr nonnull %value.i)
  %0 = load i32, ptr %obj, align 4
  store i32 %0, ptr %value.i, align 4
  %call.i = call zeroext i1 @visit_type_enum(ptr noundef %v, ptr noundef nonnull @.str.22, ptr noundef nonnull %value.i, ptr noundef nonnull @MemoryFailureRecipient_lookup, ptr noundef %errp) #5
  %1 = load i32, ptr %value.i, align 4
  store i32 %1, ptr %obj, align 4
  call void @llvm.lifetime.end.p0(i64 4, ptr nonnull %value.i)
  br i1 %call.i, label %if.end, label %return

if.end:                                           ; preds = %entry
  %action = getelementptr inbounds nuw i8, ptr %obj, i64 4
  call void @llvm.lifetime.start.p0(i64 4, ptr nonnull %value.i7)
  %2 = load i32, ptr %action, align 4
  store i32 %2, ptr %value.i7, align 4
  %call.i8 = call zeroext i1 @visit_type_enum(ptr noundef %v, ptr noundef nonnull @.str.7, ptr noundef nonnull %value.i7, ptr noundef nonnull @MemoryFailureAction_lookup, ptr noundef %errp) #5
  %3 = load i32, ptr %value.i7, align 4
  store i32 %3, ptr %action, align 4
  call void @llvm.lifetime.end.p0(i64 4, ptr nonnull %value.i7)
  br i1 %call.i8, label %if.end3, label %return

if.end3:                                          ; preds = %if.end
  %flags = getelementptr inbounds nuw i8, ptr %obj, i64 8
  %call4 = call zeroext i1 @visit_type_MemoryFailureFlags(ptr noundef %v, ptr noundef nonnull @.str.23, ptr noundef nonnull %flags, ptr noundef %errp)
  br label %return

return:                                           ; preds = %if.end3, %if.end, %entry
  %retval.0 = phi i1 [ false, %entry ], [ false, %if.end ], [ %call4, %if.end3 ]
  ret i1 %retval.0
}